	.syntax unified
	.cpu cortex-m3
	.fpu softvfp
	.eabi_attribute 20, 1
	.eabi_attribute 21, 1
	.eabi_attribute 23, 3
	.eabi_attribute 24, 1
	.eabi_attribute 25, 1
	.eabi_attribute 26, 1
	.eabi_attribute 30, 4
	.eabi_attribute 34, 1
	.eabi_attribute 18, 4
	.thumb
	.file	"isr_vectors.c"
	.text
.Ltext0:
	.cfi_sections	.debug_frame
	.align	1
	.global	nmi_handler
	.thumb
	.thumb_func
	.type	nmi_handler, %function
nmi_handler:
.LFB1:
	.file 1 "isr_vectors.c"
	.loc 1 68 0
	.cfi_startproc
	@ Volatile: function does not return.
	@ Stack Align: May be called with mis-aligned SP.
	@ args = 0, pretend = 0, frame = 0
	@ frame_needed = 0, uses_anonymous_args = 0
	@ link register save eliminated.
	mov	r0, sp
	.cfi_register 13, 0
	bic	r1, r0, #7
	mov	sp, r1
.L2:
	b	.L2
	.cfi_endproc
.LFE1:
	.size	nmi_handler, .-nmi_handler
	.align	1
	.global	hard_fault_handler
	.thumb
	.thumb_func
	.type	hard_fault_handler, %function
hard_fault_handler:
.LFB2:
	.loc 1 73 0
	.cfi_startproc
	@ Volatile: function does not return.
	@ Stack Align: May be called with mis-aligned SP.
	@ args = 0, pretend = 0, frame = 0
	@ frame_needed = 0, uses_anonymous_args = 0
	@ link register save eliminated.
	.loc 1 73 0
	mov	r0, sp
	.cfi_register 13, 0
	bic	r1, r0, #7
	mov	sp, r1
.L4:
	b	.L4
	.cfi_endproc
.LFE2:
	.size	hard_fault_handler, .-hard_fault_handler
	.align	1
	.global	memory_management_fault_handler
	.thumb
	.thumb_func
	.type	memory_management_fault_handler, %function
memory_management_fault_handler:
.LFB3:
	.loc 1 78 0
	.cfi_startproc
	@ Volatile: function does not return.
	@ Stack Align: May be called with mis-aligned SP.
	@ args = 0, pretend = 0, frame = 0
	@ frame_needed = 0, uses_anonymous_args = 0
	@ link register save eliminated.
	.loc 1 78 0
	mov	r0, sp
	.cfi_register 13, 0
	bic	r1, r0, #7
	mov	sp, r1
.L6:
	b	.L6
	.cfi_endproc
.LFE3:
	.size	memory_management_fault_handler, .-memory_management_fault_handler
	.align	1
	.global	bus_fault_handler
	.thumb
	.thumb_func
	.type	bus_fault_handler, %function
bus_fault_handler:
.LFB4:
	.loc 1 83 0
	.cfi_startproc
	@ Volatile: function does not return.
	@ Stack Align: May be called with mis-aligned SP.
	@ args = 0, pretend = 0, frame = 0
	@ frame_needed = 0, uses_anonymous_args = 0
	@ link register save eliminated.
	.loc 1 83 0
	mov	r0, sp
	.cfi_register 13, 0
	bic	r1, r0, #7
	mov	sp, r1
.L8:
	b	.L8
	.cfi_endproc
.LFE4:
	.size	bus_fault_handler, .-bus_fault_handler
	.align	1
	.global	usage_fault_handler
	.thumb
	.thumb_func
	.type	usage_fault_handler, %function
usage_fault_handler:
.LFB5:
	.loc 1 88 0
	.cfi_startproc
	@ Volatile: function does not return.
	@ Stack Align: May be called with mis-aligned SP.
	@ args = 0, pretend = 0, frame = 0
	@ frame_needed = 0, uses_anonymous_args = 0
	@ link register save eliminated.
	.loc 1 88 0
	mov	r0, sp
	.cfi_register 13, 0
	bic	r1, r0, #7
	mov	sp, r1
.L10:
	b	.L10
	.cfi_endproc
.LFE5:
	.size	usage_fault_handler, .-usage_fault_handler
	.align	1
	.global	sv_call_handler
	.thumb
	.thumb_func
	.type	sv_call_handler, %function
sv_call_handler:
.LFB6:
	.loc 1 93 0
	.cfi_startproc
	@ Volatile: function does not return.
	@ Stack Align: May be called with mis-aligned SP.
	@ args = 0, pretend = 0, frame = 0
	@ frame_needed = 0, uses_anonymous_args = 0
	@ link register save eliminated.
	.loc 1 93 0
	mov	r0, sp
	.cfi_register 13, 0
	bic	r1, r0, #7
	mov	sp, r1
.L12:
	b	.L12
	.cfi_endproc
.LFE6:
	.size	sv_call_handler, .-sv_call_handler
	.align	1
	.global	pend_sv_handler
	.thumb
	.thumb_func
	.type	pend_sv_handler, %function
pend_sv_handler:
.LFB7:
	.loc 1 98 0
	.cfi_startproc
	@ Volatile: function does not return.
	@ Stack Align: May be called with mis-aligned SP.
	@ args = 0, pretend = 0, frame = 0
	@ frame_needed = 0, uses_anonymous_args = 0
	@ link register save eliminated.
	.loc 1 98 0
	mov	r0, sp
	.cfi_register 13, 0
	bic	r1, r0, #7
	mov	sp, r1
.L14:
	b	.L14
	.cfi_endproc
.LFE7:
	.size	pend_sv_handler, .-pend_sv_handler
	.align	1
	.global	sys_tick_handler
	.thumb
	.thumb_func
	.type	sys_tick_handler, %function
sys_tick_handler:
.LFB8:
	.loc 1 103 0
	.cfi_startproc
	@ Volatile: function does not return.
	@ Stack Align: May be called with mis-aligned SP.
	@ args = 0, pretend = 0, frame = 0
	@ frame_needed = 0, uses_anonymous_args = 0
	@ link register save eliminated.
	.loc 1 103 0
	mov	r0, sp
	.cfi_register 13, 0
	bic	r1, r0, #7
	mov	sp, r1
.L16:
	b	.L16
	.cfi_endproc
.LFE8:
	.size	sys_tick_handler, .-sys_tick_handler
	.align	1
	.global	wdt_handler
	.thumb
	.thumb_func
	.type	wdt_handler, %function
wdt_handler:
.LFB9:
	.loc 1 108 0
	.cfi_startproc
	@ Volatile: function does not return.
	@ Stack Align: May be called with mis-aligned SP.
	@ args = 0, pretend = 0, frame = 0
	@ frame_needed = 0, uses_anonymous_args = 0
	@ link register save eliminated.
	.loc 1 108 0
	mov	r0, sp
	.cfi_register 13, 0
	bic	r1, r0, #7
	mov	sp, r1
.L18:
	b	.L18
	.cfi_endproc
.LFE9:
	.size	wdt_handler, .-wdt_handler
	.align	1
	.global	timer0_handler
	.thumb
	.thumb_func
	.type	timer0_handler, %function
timer0_handler:
.LFB10:
	.loc 1 113 0
	.cfi_startproc
	@ Volatile: function does not return.
	@ Stack Align: May be called with mis-aligned SP.
	@ args = 0, pretend = 0, frame = 0
	@ frame_needed = 0, uses_anonymous_args = 0
	@ link register save eliminated.
	.loc 1 113 0
	mov	r0, sp
	.cfi_register 13, 0
	bic	r1, r0, #7
	mov	sp, r1
.L20:
	b	.L20
	.cfi_endproc
.LFE10:
	.size	timer0_handler, .-timer0_handler
	.align	1
	.global	timer1_handler
	.thumb
	.thumb_func
	.type	timer1_handler, %function
timer1_handler:
.LFB11:
	.loc 1 118 0
	.cfi_startproc
	@ Volatile: function does not return.
	@ Stack Align: May be called with mis-aligned SP.
	@ args = 0, pretend = 0, frame = 0
	@ frame_needed = 0, uses_anonymous_args = 0
	@ link register save eliminated.
	.loc 1 118 0
	mov	r0, sp
	.cfi_register 13, 0
	bic	r1, r0, #7
	mov	sp, r1
.L22:
	b	.L22
	.cfi_endproc
.LFE11:
	.size	timer1_handler, .-timer1_handler
	.align	1
	.global	timer2_handler
	.thumb
	.thumb_func
	.type	timer2_handler, %function
timer2_handler:
.LFB12:
	.loc 1 123 0
	.cfi_startproc
	@ Volatile: function does not return.
	@ Stack Align: May be called with mis-aligned SP.
	@ args = 0, pretend = 0, frame = 0
	@ frame_needed = 0, uses_anonymous_args = 0
	@ link register save eliminated.
	.loc 1 123 0
	mov	r0, sp
	.cfi_register 13, 0
	bic	r1, r0, #7
	mov	sp, r1
.L24:
	b	.L24
	.cfi_endproc
.LFE12:
	.size	timer2_handler, .-timer2_handler
	.align	1
	.global	timer3_handler
	.thumb
	.thumb_func
	.type	timer3_handler, %function
timer3_handler:
.LFB13:
	.loc 1 128 0
	.cfi_startproc
	@ Volatile: function does not return.
	@ Stack Align: May be called with mis-aligned SP.
	@ args = 0, pretend = 0, frame = 0
	@ frame_needed = 0, uses_anonymous_args = 0
	@ link register save eliminated.
	.loc 1 128 0
	mov	r0, sp
	.cfi_register 13, 0
	bic	r1, r0, #7
	mov	sp, r1
.L26:
	b	.L26
	.cfi_endproc
.LFE13:
	.size	timer3_handler, .-timer3_handler
	.align	1
	.global	uart0_handler
	.thumb
	.thumb_func
	.type	uart0_handler, %function
uart0_handler:
.LFB14:
	.loc 1 133 0
	.cfi_startproc
	@ Volatile: function does not return.
	@ Stack Align: May be called with mis-aligned SP.
	@ args = 0, pretend = 0, frame = 0
	@ frame_needed = 0, uses_anonymous_args = 0
	@ link register save eliminated.
	.loc 1 133 0
	mov	r0, sp
	.cfi_register 13, 0
	bic	r1, r0, #7
	mov	sp, r1
.L28:
	b	.L28
	.cfi_endproc
.LFE14:
	.size	uart0_handler, .-uart0_handler
	.align	1
	.global	uart1_handler
	.thumb
	.thumb_func
	.type	uart1_handler, %function
uart1_handler:
.LFB15:
	.loc 1 138 0
	.cfi_startproc
	@ Volatile: function does not return.
	@ Stack Align: May be called with mis-aligned SP.
	@ args = 0, pretend = 0, frame = 0
	@ frame_needed = 0, uses_anonymous_args = 0
	@ link register save eliminated.
	.loc 1 138 0
	mov	r0, sp
	.cfi_register 13, 0
	bic	r1, r0, #7
	mov	sp, r1
.L30:
	b	.L30
	.cfi_endproc
.LFE15:
	.size	uart1_handler, .-uart1_handler
	.align	1
	.global	uart2_handler
	.thumb
	.thumb_func
	.type	uart2_handler, %function
uart2_handler:
.LFB16:
	.loc 1 143 0
	.cfi_startproc
	@ Volatile: function does not return.
	@ Stack Align: May be called with mis-aligned SP.
	@ args = 0, pretend = 0, frame = 0
	@ frame_needed = 0, uses_anonymous_args = 0
	@ link register save eliminated.
	.loc 1 143 0
	mov	r0, sp
	.cfi_register 13, 0
	bic	r1, r0, #7
	mov	sp, r1
.L32:
	b	.L32
	.cfi_endproc
.LFE16:
	.size	uart2_handler, .-uart2_handler
	.align	1
	.global	uart3_handler
	.thumb
	.thumb_func
	.type	uart3_handler, %function
uart3_handler:
.LFB17:
	.loc 1 148 0
	.cfi_startproc
	@ Volatile: function does not return.
	@ Stack Align: May be called with mis-aligned SP.
	@ args = 0, pretend = 0, frame = 0
	@ frame_needed = 0, uses_anonymous_args = 0
	@ link register save eliminated.
	.loc 1 148 0
	mov	r0, sp
	.cfi_register 13, 0
	bic	r1, r0, #7
	mov	sp, r1
.L34:
	b	.L34
	.cfi_endproc
.LFE17:
	.size	uart3_handler, .-uart3_handler
	.align	1
	.global	pwm1_handler
	.thumb
	.thumb_func
	.type	pwm1_handler, %function
pwm1_handler:
.LFB18:
	.loc 1 153 0
	.cfi_startproc
	@ Volatile: function does not return.
	@ Stack Align: May be called with mis-aligned SP.
	@ args = 0, pretend = 0, frame = 0
	@ frame_needed = 0, uses_anonymous_args = 0
	@ link register save eliminated.
	.loc 1 153 0
	mov	r0, sp
	.cfi_register 13, 0
	bic	r1, r0, #7
	mov	sp, r1
.L36:
	b	.L36
	.cfi_endproc
.LFE18:
	.size	pwm1_handler, .-pwm1_handler
	.align	1
	.global	i2c0_handler
	.thumb
	.thumb_func
	.type	i2c0_handler, %function
i2c0_handler:
.LFB19:
	.loc 1 158 0
	.cfi_startproc
	@ Volatile: function does not return.
	@ Stack Align: May be called with mis-aligned SP.
	@ args = 0, pretend = 0, frame = 0
	@ frame_needed = 0, uses_anonymous_args = 0
	@ link register save eliminated.
	.loc 1 158 0
	mov	r0, sp
	.cfi_register 13, 0
	bic	r1, r0, #7
	mov	sp, r1
.L38:
	b	.L38
	.cfi_endproc
.LFE19:
	.size	i2c0_handler, .-i2c0_handler
	.align	1
	.global	i2c1_handler
	.thumb
	.thumb_func
	.type	i2c1_handler, %function
i2c1_handler:
.LFB20:
	.loc 1 163 0
	.cfi_startproc
	@ Volatile: function does not return.
	@ Stack Align: May be called with mis-aligned SP.
	@ args = 0, pretend = 0, frame = 0
	@ frame_needed = 0, uses_anonymous_args = 0
	@ link register save eliminated.
	.loc 1 163 0
	mov	r0, sp
	.cfi_register 13, 0
	bic	r1, r0, #7
	mov	sp, r1
.L40:
	b	.L40
	.cfi_endproc
.LFE20:
	.size	i2c1_handler, .-i2c1_handler
	.align	1
	.global	i2c2_handler
	.thumb
	.thumb_func
	.type	i2c2_handler, %function
i2c2_handler:
.LFB21:
	.loc 1 168 0
	.cfi_startproc
	@ Volatile: function does not return.
	@ Stack Align: May be called with mis-aligned SP.
	@ args = 0, pretend = 0, frame = 0
	@ frame_needed = 0, uses_anonymous_args = 0
	@ link register save eliminated.
	.loc 1 168 0
	mov	r0, sp
	.cfi_register 13, 0
	bic	r1, r0, #7
	mov	sp, r1
.L42:
	b	.L42
	.cfi_endproc
.LFE21:
	.size	i2c2_handler, .-i2c2_handler
	.align	1
	.global	spi_handler
	.thumb
	.thumb_func
	.type	spi_handler, %function
spi_handler:
.LFB22:
	.loc 1 173 0
	.cfi_startproc
	@ Volatile: function does not return.
	@ Stack Align: May be called with mis-aligned SP.
	@ args = 0, pretend = 0, frame = 0
	@ frame_needed = 0, uses_anonymous_args = 0
	@ link register save eliminated.
	.loc 1 173 0
	mov	r0, sp
	.cfi_register 13, 0
	bic	r1, r0, #7
	mov	sp, r1
.L44:
	b	.L44
	.cfi_endproc
.LFE22:
	.size	spi_handler, .-spi_handler
	.align	1
	.global	ssp0_handler
	.thumb
	.thumb_func
	.type	ssp0_handler, %function
ssp0_handler:
.LFB23:
	.loc 1 178 0
	.cfi_startproc
	@ Volatile: function does not return.
	@ Stack Align: May be called with mis-aligned SP.
	@ args = 0, pretend = 0, frame = 0
	@ frame_needed = 0, uses_anonymous_args = 0
	@ link register save eliminated.
	.loc 1 178 0
	mov	r0, sp
	.cfi_register 13, 0
	bic	r1, r0, #7
	mov	sp, r1
.L46:
	b	.L46
	.cfi_endproc
.LFE23:
	.size	ssp0_handler, .-ssp0_handler
	.align	1
	.global	ssp1_handler
	.thumb
	.thumb_func
	.type	ssp1_handler, %function
ssp1_handler:
.LFB24:
	.loc 1 183 0
	.cfi_startproc
	@ Volatile: function does not return.
	@ Stack Align: May be called with mis-aligned SP.
	@ args = 0, pretend = 0, frame = 0
	@ frame_needed = 0, uses_anonymous_args = 0
	@ link register save eliminated.
	.loc 1 183 0
	mov	r0, sp
	.cfi_register 13, 0
	bic	r1, r0, #7
	mov	sp, r1
.L48:
	b	.L48
	.cfi_endproc
.LFE24:
	.size	ssp1_handler, .-ssp1_handler
	.align	1
	.global	pll0_handler
	.thumb
	.thumb_func
	.type	pll0_handler, %function
pll0_handler:
.LFB25:
	.loc 1 188 0
	.cfi_startproc
	@ Volatile: function does not return.
	@ Stack Align: May be called with mis-aligned SP.
	@ args = 0, pretend = 0, frame = 0
	@ frame_needed = 0, uses_anonymous_args = 0
	@ link register save eliminated.
	.loc 1 188 0
	mov	r0, sp
	.cfi_register 13, 0
	bic	r1, r0, #7
	mov	sp, r1
.L50:
	b	.L50
	.cfi_endproc
.LFE25:
	.size	pll0_handler, .-pll0_handler
	.align	1
	.global	rtc_handler
	.thumb
	.thumb_func
	.type	rtc_handler, %function
rtc_handler:
.LFB26:
	.loc 1 193 0
	.cfi_startproc
	@ Volatile: function does not return.
	@ Stack Align: May be called with mis-aligned SP.
	@ args = 0, pretend = 0, frame = 0
	@ frame_needed = 0, uses_anonymous_args = 0
	@ link register save eliminated.
	.loc 1 193 0
	mov	r0, sp
	.cfi_register 13, 0
	bic	r1, r0, #7
	mov	sp, r1
.L52:
	b	.L52
	.cfi_endproc
.LFE26:
	.size	rtc_handler, .-rtc_handler
	.align	1
	.global	eint0_handler
	.thumb
	.thumb_func
	.type	eint0_handler, %function
eint0_handler:
.LFB27:
	.loc 1 198 0
	.cfi_startproc
	@ Volatile: function does not return.
	@ Stack Align: May be called with mis-aligned SP.
	@ args = 0, pretend = 0, frame = 0
	@ frame_needed = 0, uses_anonymous_args = 0
	@ link register save eliminated.
	.loc 1 198 0
	mov	r0, sp
	.cfi_register 13, 0
	bic	r1, r0, #7
	mov	sp, r1
.L54:
	b	.L54
	.cfi_endproc
.LFE27:
	.size	eint0_handler, .-eint0_handler
	.align	1
	.global	eint1_handler
	.thumb
	.thumb_func
	.type	eint1_handler, %function
eint1_handler:
.LFB28:
	.loc 1 203 0
	.cfi_startproc
	@ Volatile: function does not return.
	@ Stack Align: May be called with mis-aligned SP.
	@ args = 0, pretend = 0, frame = 0
	@ frame_needed = 0, uses_anonymous_args = 0
	@ link register save eliminated.
	.loc 1 203 0
	mov	r0, sp
	.cfi_register 13, 0
	bic	r1, r0, #7
	mov	sp, r1
.L56:
	b	.L56
	.cfi_endproc
.LFE28:
	.size	eint1_handler, .-eint1_handler
	.align	1
	.global	eint2_handler
	.thumb
	.thumb_func
	.type	eint2_handler, %function
eint2_handler:
.LFB29:
	.loc 1 208 0
	.cfi_startproc
	@ Volatile: function does not return.
	@ Stack Align: May be called with mis-aligned SP.
	@ args = 0, pretend = 0, frame = 0
	@ frame_needed = 0, uses_anonymous_args = 0
	@ link register save eliminated.
	.loc 1 208 0
	mov	r0, sp
	.cfi_register 13, 0
	bic	r1, r0, #7
	mov	sp, r1
.L58:
	b	.L58
	.cfi_endproc
.LFE29:
	.size	eint2_handler, .-eint2_handler
	.align	1
	.global	eint3_handler
	.thumb
	.thumb_func
	.type	eint3_handler, %function
eint3_handler:
.LFB30:
	.loc 1 213 0
	.cfi_startproc
	@ Volatile: function does not return.
	@ Stack Align: May be called with mis-aligned SP.
	@ args = 0, pretend = 0, frame = 0
	@ frame_needed = 0, uses_anonymous_args = 0
	@ link register save eliminated.
	.loc 1 213 0
	mov	r0, sp
	.cfi_register 13, 0
	bic	r1, r0, #7
	mov	sp, r1
.L60:
	b	.L60
	.cfi_endproc
.LFE30:
	.size	eint3_handler, .-eint3_handler
	.align	1
	.global	adc_handler
	.thumb
	.thumb_func
	.type	adc_handler, %function
adc_handler:
.LFB31:
	.loc 1 218 0
	.cfi_startproc
	@ Volatile: function does not return.
	@ Stack Align: May be called with mis-aligned SP.
	@ args = 0, pretend = 0, frame = 0
	@ frame_needed = 0, uses_anonymous_args = 0
	@ link register save eliminated.
	.loc 1 218 0
	mov	r0, sp
	.cfi_register 13, 0
	bic	r1, r0, #7
	mov	sp, r1
.L62:
	b	.L62
	.cfi_endproc
.LFE31:
	.size	adc_handler, .-adc_handler
	.align	1
	.global	bod_handler
	.thumb
	.thumb_func
	.type	bod_handler, %function
bod_handler:
.LFB32:
	.loc 1 223 0
	.cfi_startproc
	@ Volatile: function does not return.
	@ Stack Align: May be called with mis-aligned SP.
	@ args = 0, pretend = 0, frame = 0
	@ frame_needed = 0, uses_anonymous_args = 0
	@ link register save eliminated.
	.loc 1 223 0
	mov	r0, sp
	.cfi_register 13, 0
	bic	r1, r0, #7
	mov	sp, r1
.L64:
	b	.L64
	.cfi_endproc
.LFE32:
	.size	bod_handler, .-bod_handler
	.align	1
	.global	usb_handler
	.thumb
	.thumb_func
	.type	usb_handler, %function
usb_handler:
.LFB33:
	.loc 1 228 0
	.cfi_startproc
	@ Volatile: function does not return.
	@ Stack Align: May be called with mis-aligned SP.
	@ args = 0, pretend = 0, frame = 0
	@ frame_needed = 0, uses_anonymous_args = 0
	@ link register save eliminated.
	.loc 1 228 0
	mov	r0, sp
	.cfi_register 13, 0
	bic	r1, r0, #7
	mov	sp, r1
.L66:
	b	.L66
	.cfi_endproc
.LFE33:
	.size	usb_handler, .-usb_handler
	.align	1
	.global	can_handler
	.thumb
	.thumb_func
	.type	can_handler, %function
can_handler:
.LFB34:
	.loc 1 233 0
	.cfi_startproc
	@ Volatile: function does not return.
	@ Stack Align: May be called with mis-aligned SP.
	@ args = 0, pretend = 0, frame = 0
	@ frame_needed = 0, uses_anonymous_args = 0
	@ link register save eliminated.
	.loc 1 233 0
	mov	r0, sp
	.cfi_register 13, 0
	bic	r1, r0, #7
	mov	sp, r1
.L68:
	b	.L68
	.cfi_endproc
.LFE34:
	.size	can_handler, .-can_handler
	.align	1
	.global	dma_handler
	.thumb
	.thumb_func
	.type	dma_handler, %function
dma_handler:
.LFB35:
	.loc 1 238 0
	.cfi_startproc
	@ Volatile: function does not return.
	@ Stack Align: May be called with mis-aligned SP.
	@ args = 0, pretend = 0, frame = 0
	@ frame_needed = 0, uses_anonymous_args = 0
	@ link register save eliminated.
	.loc 1 238 0
	mov	r0, sp
	.cfi_register 13, 0
	bic	r1, r0, #7
	mov	sp, r1
.L70:
	b	.L70
	.cfi_endproc
.LFE35:
	.size	dma_handler, .-dma_handler
	.align	1
	.global	i2s_handler
	.thumb
	.thumb_func
	.type	i2s_handler, %function
i2s_handler:
.LFB36:
	.loc 1 243 0
	.cfi_startproc
	@ Volatile: function does not return.
	@ Stack Align: May be called with mis-aligned SP.
	@ args = 0, pretend = 0, frame = 0
	@ frame_needed = 0, uses_anonymous_args = 0
	@ link register save eliminated.
	.loc 1 243 0
	mov	r0, sp
	.cfi_register 13, 0
	bic	r1, r0, #7
	mov	sp, r1
.L72:
	b	.L72
	.cfi_endproc
.LFE36:
	.size	i2s_handler, .-i2s_handler
	.align	1
	.global	emac_handler
	.thumb
	.thumb_func
	.type	emac_handler, %function
emac_handler:
.LFB37:
	.loc 1 248 0
	.cfi_startproc
	@ Volatile: function does not return.
	@ Stack Align: May be called with mis-aligned SP.
	@ args = 0, pretend = 0, frame = 0
	@ frame_needed = 0, uses_anonymous_args = 0
	@ link register save eliminated.
	.loc 1 248 0
	mov	r0, sp
	.cfi_register 13, 0
	bic	r1, r0, #7
	mov	sp, r1
.L74:
	b	.L74
	.cfi_endproc
.LFE37:
	.size	emac_handler, .-emac_handler
	.align	1
	.global	rit_handler
	.thumb
	.thumb_func
	.type	rit_handler, %function
rit_handler:
.LFB38:
	.loc 1 253 0
	.cfi_startproc
	@ Volatile: function does not return.
	@ Stack Align: May be called with mis-aligned SP.
	@ args = 0, pretend = 0, frame = 0
	@ frame_needed = 0, uses_anonymous_args = 0
	@ link register save eliminated.
	.loc 1 253 0
	mov	r0, sp
	.cfi_register 13, 0
	bic	r1, r0, #7
	mov	sp, r1
.L76:
	b	.L76
	.cfi_endproc
.LFE38:
	.size	rit_handler, .-rit_handler
	.align	1
	.global	mc_pwm_handler
	.thumb
	.thumb_func
	.type	mc_pwm_handler, %function
mc_pwm_handler:
.LFB39:
	.loc 1 258 0
	.cfi_startproc
	@ Volatile: function does not return.
	@ Stack Align: May be called with mis-aligned SP.
	@ args = 0, pretend = 0, frame = 0
	@ frame_needed = 0, uses_anonymous_args = 0
	@ link register save eliminated.
	.loc 1 258 0
	mov	r0, sp
	.cfi_register 13, 0
	bic	r1, r0, #7
	mov	sp, r1
.L78:
	b	.L78
	.cfi_endproc
.LFE39:
	.size	mc_pwm_handler, .-mc_pwm_handler
	.align	1
	.global	qei_handler
	.thumb
	.thumb_func
	.type	qei_handler, %function
qei_handler:
.LFB40:
	.loc 1 263 0
	.cfi_startproc
	@ Volatile: function does not return.
	@ Stack Align: May be called with mis-aligned SP.
	@ args = 0, pretend = 0, frame = 0
	@ frame_needed = 0, uses_anonymous_args = 0
	@ link register save eliminated.
	.loc 1 263 0
	mov	r0, sp
	.cfi_register 13, 0
	bic	r1, r0, #7
	mov	sp, r1
.L80:
	b	.L80
	.cfi_endproc
.LFE40:
	.size	qei_handler, .-qei_handler
	.align	1
	.global	pll1_handler
	.thumb
	.thumb_func
	.type	pll1_handler, %function
pll1_handler:
.LFB41:
	.loc 1 268 0
	.cfi_startproc
	@ Volatile: function does not return.
	@ Stack Align: May be called with mis-aligned SP.
	@ args = 0, pretend = 0, frame = 0
	@ frame_needed = 0, uses_anonymous_args = 0
	@ link register save eliminated.
	.loc 1 268 0
	mov	r0, sp
	.cfi_register 13, 0
	bic	r1, r0, #7
	mov	sp, r1
.L82:
	b	.L82
	.cfi_endproc
.LFE41:
	.size	pll1_handler, .-pll1_handler
	.align	1
	.global	usb_activity_handler
	.thumb
	.thumb_func
	.type	usb_activity_handler, %function
usb_activity_handler:
.LFB42:
	.loc 1 273 0
	.cfi_startproc
	@ Volatile: function does not return.
	@ Stack Align: May be called with mis-aligned SP.
	@ args = 0, pretend = 0, frame = 0
	@ frame_needed = 0, uses_anonymous_args = 0
	@ link register save eliminated.
	.loc 1 273 0
	mov	r0, sp
	.cfi_register 13, 0
	bic	r1, r0, #7
	mov	sp, r1
.L84:
	b	.L84
	.cfi_endproc
.LFE42:
	.size	usb_activity_handler, .-usb_activity_handler
	.align	1
	.global	can_activity_handler
	.thumb
	.thumb_func
	.type	can_activity_handler, %function
can_activity_handler:
.LFB43:
	.loc 1 278 0
	.cfi_startproc
	@ Volatile: function does not return.
	@ Stack Align: May be called with mis-aligned SP.
	@ args = 0, pretend = 0, frame = 0
	@ frame_needed = 0, uses_anonymous_args = 0
	@ link register save eliminated.
	.loc 1 278 0
	mov	r0, sp
	.cfi_register 13, 0
	bic	r1, r0, #7
	mov	sp, r1
.L86:
	b	.L86
	.cfi_endproc
.LFE43:
	.size	can_activity_handler, .-can_activity_handler
	.align	1
	.global	reset_handler
	.thumb
	.thumb_func
	.type	reset_handler, %function
reset_handler:
.LFB0:
	.loc 1 61 0
	.cfi_startproc
	@ Volatile: function does not return.
	@ Stack Align: May be called with mis-aligned SP.
	@ args = 0, pretend = 0, frame = 0
	@ frame_needed = 0, uses_anonymous_args = 0
	.loc 1 61 0
	mov	r0, sp
	.cfi_register 13, 0
	bic	r1, r0, #7
	mov	sp, r1
	push	{r3, lr}
.LCFI0:
	.cfi_def_cfa_offset 8
	.cfi_offset 3, -8
	.cfi_offset 14, -4
	.loc 1 62 0
	bl	main
.LVL0:
.L88:
	b	.L88
	.cfi_endproc
.LFE0:
	.size	reset_handler, .-reset_handler
	.global	isr_vector_rest
	.global	isr_sv_call
	.global	isr_vectors
	.section	.isr_vector_first_six,"a",%progbits
	.align	2
	.type	isr_vectors, %object
	.size	isr_vectors, 24
isr_vectors:
	.word	reset_handler
	.word	nmi_handler
	.word	hard_fault_handler
	.word	memory_management_fault_handler
	.word	bus_fault_handler
	.word	usage_fault_handler
	.section	.isr_vector_rest,"a",%progbits
	.align	2
	.type	isr_vector_rest, %object
	.size	isr_vector_rest, 148
isr_vector_rest:
	.word	pend_sv_handler
	.word	sys_tick_handler
	.word	wdt_handler
	.word	timer0_handler
	.word	timer1_handler
	.word	timer2_handler
	.word	timer3_handler
	.word	uart0_handler
	.word	uart1_handler
	.word	uart2_handler
	.word	uart3_handler
	.word	pwm1_handler
	.word	i2c0_handler
	.word	i2c1_handler
	.word	i2c2_handler
	.word	spi_handler
	.word	ssp0_handler
	.word	ssp1_handler
	.word	pll0_handler
	.word	rtc_handler
	.word	eint0_handler
	.word	eint1_handler
	.word	eint2_handler
	.word	eint3_handler
	.word	adc_handler
	.word	bod_handler
	.word	usb_handler
	.word	can_handler
	.word	dma_handler
	.word	i2s_handler
	.word	emac_handler
	.word	rit_handler
	.word	mc_pwm_handler
	.word	qei_handler
	.word	pll1_handler
	.word	usb_activity_handler
	.word	can_activity_handler
	.section	.isr_sv_call,"a",%progbits
	.align	2
	.type	isr_sv_call, %object
	.size	isr_sv_call, 4
isr_sv_call:
	.word	sv_call_handler
	.text
.Letext0:
	.file 2 "main.hpp"